target datalayout = "e-m:e-p270:32:32-p271:32:32-p272:64:64-i64:64-i128:128-f80:128-n8:16:32:64-S128"
target triple = "x86_64-pc-linux-gnu"

%struct.pm_lex_mode = type { i32, %union.anon, ptr }
%union.anon = type { %struct.anon.3 }
%struct.anon.3 = type { %struct.pm_heredoc_lex_mode_t, ptr, ptr, i8 }
%struct.pm_heredoc_lex_mode_t = type { ptr, i64, i32, i32 }
%struct.pm_parser = type { i32, i32, i32, i32, i32, i32, i32, %struct.anon, ptr, ptr, %struct.pm_token_t, %struct.pm_token_t, ptr, ptr, %struct.pm_list_t, %struct.pm_list_t, %struct.pm_location_t, %struct.pm_list_t, %struct.pm_list_t, ptr, ptr, ptr, ptr, ptr, ptr, ptr, %struct.pm_string_t, %struct.pm_constant_pool_t, %struct.pm_newline_list_t, i16, %struct.pm_string_t, i32, ptr, ptr, i32, i8, i8, i8, i8, i8, i8, i8, i8, i8, i8, i8, i8, i8 }
%struct.anon = type { ptr, [4 x %struct.pm_lex_mode], i64 }
%struct.pm_token_t = type { i32, ptr, ptr }
%struct.pm_location_t = type { ptr, ptr }
%struct.pm_list_t = type { i64, ptr, ptr }
%struct.pm_constant_pool_t = type { ptr, ptr, i32, i32 }
%struct.pm_newline_list_t = type { ptr, i64, i64, ptr }
%struct.pm_string_t = type { ptr, i64, i32 }
%struct.pm_node_list = type { i64, i64, ptr }
%struct.pm_node = type { i16, i16, i32, %struct.pm_location_t }
%struct.pm_call_node = type { %struct.pm_node, ptr, %struct.pm_location_t, i32, %struct.pm_location_t, %struct.pm_location_t, ptr, %struct.pm_location_t, ptr }
%struct.pm_arguments_t = type { %struct.pm_location_t, ptr, %struct.pm_location_t, ptr, i8 }
%struct.pm_arguments_node = type { %struct.pm_node, %struct.pm_node_list }

@stderr = external global ptr, align 8
@.str.94 = private unnamed_addr constant [29 x i8] c"Failed to allocate %d bytes\0A\00", align 1

; Function Attrs: inlinehint nounwind sspstrong uwtable
define internal i32 @pm_parser_constant_id_location(ptr noundef %0, ptr noundef %1, ptr noundef %2) #7 {
  %4 = alloca ptr, align 8
  %5 = alloca ptr, align 8
  %6 = alloca ptr, align 8
  store ptr %0, ptr %4, align 8, !tbaa !7
  store ptr %1, ptr %5, align 8, !tbaa !12
  store ptr %2, ptr %6, align 8, !tbaa !12
  %7 = load ptr, ptr %4, align 8, !tbaa !7
  %8 = getelementptr inbounds nuw %struct.pm_parser, ptr %7, i32 0, i32 27
  %9 = load ptr, ptr %5, align 8, !tbaa !12
  %10 = load ptr, ptr %6, align 8, !tbaa !12
  %11 = load ptr, ptr %5, align 8, !tbaa !12
  %12 = ptrtoint ptr %10 to i64
  %13 = ptrtoint ptr %11 to i64
  %14 = sub i64 %12, %13
  %15 = call i32 @pm_constant_pool_insert_shared(ptr noundef %8, ptr noundef %9, i64 noundef %14)
  ret i32 %15
}

; Function Attrs: inlinehint nounwind sspstrong uwtable
define internal ptr @pm_node_alloc(ptr noundef %0, i64 noundef %1) #7 {
  %3 = alloca ptr, align 8
  %4 = alloca i64, align 8
  %5 = alloca ptr, align 8
  store ptr %0, ptr %3, align 8, !tbaa !7
  store i64 %1, ptr %4, align 8, !tbaa !14
  call void @llvm.lifetime.start.p0(i64 8, ptr %5) #15
  %6 = load i64, ptr %4, align 8, !tbaa !14
  %7 = call noalias ptr @calloc(i64 noundef 1, i64 noundef %6) #18
  store ptr %7, ptr %5, align 8, !tbaa !57
  %8 = load ptr, ptr %5, align 8, !tbaa !57
  %9 = icmp eq ptr %8, null
  br i1 %9, label %10, label %15

10:                                               ; preds = %2
  %11 = load ptr, ptr @stderr, align 8, !tbaa !452
  %12 = load i64, ptr %4, align 8, !tbaa !14
  %13 = trunc i64 %12 to i32
  %14 = call i32 (ptr, i32, ptr, ...) @__fprintf_chk(ptr noundef %11, i32 noundef 1, ptr noundef @.str.94, i32 noundef %13)
  call void @abort() #19
  unreachable

15:                                               ; preds = %2
  %16 = load ptr, ptr %5, align 8, !tbaa !57
  call void @llvm.lifetime.end.p0(i64 8, ptr %5) #15
  ret ptr %16
}

; Function Attrs: inlinehint nounwind sspstrong uwtable
define internal i32 @pm_parser_constant_id_token(ptr noundef %0, ptr noundef %1) #7 {
  %3 = alloca ptr, align 8
  %4 = alloca ptr, align 8
  store ptr %0, ptr %3, align 8, !tbaa !7
  store ptr %1, ptr %4, align 8, !tbaa !57
  %5 = load ptr, ptr %3, align 8, !tbaa !7
  %6 = load ptr, ptr %4, align 8, !tbaa !57
  %7 = getelementptr inbounds nuw %struct.pm_token_t, ptr %6, i32 0, i32 1
  %8 = load ptr, ptr %7, align 8, !tbaa !43
  %9 = load ptr, ptr %4, align 8, !tbaa !57
  %10 = getelementptr inbounds nuw %struct.pm_token_t, ptr %9, i32 0, i32 2
  %11 = load ptr, ptr %10, align 8, !tbaa !44
  %12 = call i32 @pm_parser_constant_id_location(ptr noundef %5, ptr noundef %8, ptr noundef %11)
  ret i32 %12
}

; Function Attrs: inlinehint nounwind sspstrong uwtable
define internal ptr @pm_arguments_end(ptr noundef %0) #7 {
  %2 = alloca ptr, align 8
  %3 = alloca ptr, align 8
  %4 = alloca ptr, align 8
  store ptr %0, ptr %3, align 8, !tbaa !57
  %5 = load ptr, ptr %3, align 8, !tbaa !57
  %6 = getelementptr inbounds nuw %struct.pm_arguments_t, ptr %5, i32 0, i32 3
  %7 = load ptr, ptr %6, align 8, !tbaa !357
  %8 = icmp ne ptr %7, null
  br i1 %8, label %9, label %35

9:                                                ; preds = %1
  call void @llvm.lifetime.start.p0(i64 8, ptr %4) #15
  %10 = load ptr, ptr %3, align 8, !tbaa !57
  %11 = getelementptr inbounds nuw %struct.pm_arguments_t, ptr %10, i32 0, i32 3
  %12 = load ptr, ptr %11, align 8, !tbaa !357
  %13 = getelementptr inbounds nuw %struct.pm_node, ptr %12, i32 0, i32 3
  %14 = getelementptr inbounds nuw %struct.pm_location_t, ptr %13, i32 0, i32 1
  %15 = load ptr, ptr %14, align 8, !tbaa !224
  store ptr %15, ptr %4, align 8, !tbaa !12
  %16 = load ptr, ptr %3, align 8, !tbaa !57
  %17 = getelementptr inbounds nuw %struct.pm_arguments_t, ptr %16, i32 0, i32 2
  %18 = getelementptr inbounds nuw %struct.pm_location_t, ptr %17, i32 0, i32 0
  %19 = load ptr, ptr %18, align 8, !tbaa !359
  %20 = icmp ne ptr %19, null
  br i1 %20, label %21, label %33

21:                                               ; preds = %9
  %22 = load ptr, ptr %3, align 8, !tbaa !57
  %23 = getelementptr inbounds nuw %struct.pm_arguments_t, ptr %22, i32 0, i32 2
  %24 = getelementptr inbounds nuw %struct.pm_location_t, ptr %23, i32 0, i32 1
  %25 = load ptr, ptr %24, align 8, !tbaa !362
  %26 = load ptr, ptr %4, align 8, !tbaa !12
  %27 = icmp ugt ptr %25, %26
  br i1 %27, label %28, label %33

28:                                               ; preds = %21
  %29 = load ptr, ptr %3, align 8, !tbaa !57
  %30 = getelementptr inbounds nuw %struct.pm_arguments_t, ptr %29, i32 0, i32 2
  %31 = getelementptr inbounds nuw %struct.pm_location_t, ptr %30, i32 0, i32 1
  %32 = load ptr, ptr %31, align 8, !tbaa !362
  store ptr %32, ptr %4, align 8, !tbaa !12
  br label %33

33:                                               ; preds = %28, %21, %9
  %34 = load ptr, ptr %4, align 8, !tbaa !12
  store ptr %34, ptr %2, align 8
  call void @llvm.lifetime.end.p0(i64 8, ptr %4) #15
  br label %64

35:                                               ; preds = %1
  %36 = load ptr, ptr %3, align 8, !tbaa !57
  %37 = getelementptr inbounds nuw %struct.pm_arguments_t, ptr %36, i32 0, i32 2
  %38 = getelementptr inbounds nuw %struct.pm_location_t, ptr %37, i32 0, i32 0
  %39 = load ptr, ptr %38, align 8, !tbaa !359
  %40 = icmp ne ptr %39, null
  br i1 %40, label %41, label %46

41:                                               ; preds = %35
  %42 = load ptr, ptr %3, align 8, !tbaa !57
  %43 = getelementptr inbounds nuw %struct.pm_arguments_t, ptr %42, i32 0, i32 2
  %44 = getelementptr inbounds nuw %struct.pm_location_t, ptr %43, i32 0, i32 1
  %45 = load ptr, ptr %44, align 8, !tbaa !362
  store ptr %45, ptr %2, align 8
  br label %64

46:                                               ; preds = %35
  %47 = load ptr, ptr %3, align 8, !tbaa !57
  %48 = getelementptr inbounds nuw %struct.pm_arguments_t, ptr %47, i32 0, i32 1
  %49 = load ptr, ptr %48, align 8, !tbaa !355
  %50 = icmp ne ptr %49, null
  br i1 %50, label %51, label %59

51:                                               ; preds = %46
  %52 = load ptr, ptr %3, align 8, !tbaa !57
  %53 = getelementptr inbounds nuw %struct.pm_arguments_t, ptr %52, i32 0, i32 1
  %54 = load ptr, ptr %53, align 8, !tbaa !355
  %55 = getelementptr inbounds nuw %struct.pm_arguments_node, ptr %54, i32 0, i32 0
  %56 = getelementptr inbounds nuw %struct.pm_node, ptr %55, i32 0, i32 3
  %57 = getelementptr inbounds nuw %struct.pm_location_t, ptr %56, i32 0, i32 1
  %58 = load ptr, ptr %57, align 8, !tbaa !360
  store ptr %58, ptr %2, align 8
  br label %64

59:                                               ; preds = %46
  %60 = load ptr, ptr %3, align 8, !tbaa !57
  %61 = getelementptr inbounds nuw %struct.pm_arguments_t, ptr %60, i32 0, i32 2
  %62 = getelementptr inbounds nuw %struct.pm_location_t, ptr %61, i32 0, i32 1
  %63 = load ptr, ptr %62, align 8, !tbaa !362
  store ptr %63, ptr %2, align 8
  br label %64

64:                                               ; preds = %59, %51, %41, %33
  %65 = load ptr, ptr %2, align 8
  ret ptr %65
}

; Function Attrs: nounwind sspstrong uwtable
define internal ptr @pm_call_node_create(ptr noundef %0, i16 noundef zeroext %1) #0 {
  %3 = alloca ptr, align 8
  %4 = alloca i16, align 2
  %5 = alloca ptr, align 8
  %6 = alloca %struct.pm_call_node, align 8
  store ptr %0, ptr %3, align 8, !tbaa !7
  store i16 %1, ptr %4, align 2, !tbaa !59
  call void @llvm.lifetime.start.p0(i64 8, ptr %5) #15
  %7 = load ptr, ptr %3, align 8, !tbaa !7
  %8 = call ptr @pm_node_alloc(ptr noundef %7, i64 noundef 120)
  store ptr %8, ptr %5, align 8, !tbaa !210
  %9 = load ptr, ptr %5, align 8, !tbaa !210
  %10 = getelementptr inbounds nuw %struct.pm_call_node, ptr %6, i32 0, i32 0
  %11 = getelementptr inbounds nuw %struct.pm_node, ptr %10, i32 0, i32 0
  store i16 19, ptr %11, align 8, !tbaa !206
  %12 = getelementptr inbounds nuw %struct.pm_node, ptr %10, i32 0, i32 1
  %13 = load i16, ptr %4, align 2, !tbaa !59
  store i16 %13, ptr %12, align 2, !tbaa !222
  %14 = getelementptr inbounds nuw %struct.pm_node, ptr %10, i32 0, i32 2
  %15 = load ptr, ptr %3, align 8, !tbaa !7
  %16 = getelementptr inbounds nuw %struct.pm_parser, ptr %15, i32 0, i32 0
  %17 = load i32, ptr %16, align 8, !tbaa !238
  %18 = add i32 %17, 1
  store i32 %18, ptr %16, align 8, !tbaa !238
  store i32 %18, ptr %14, align 4, !tbaa !239
  %19 = getelementptr inbounds nuw %struct.pm_node, ptr %10, i32 0, i32 3
  %20 = getelementptr inbounds nuw %struct.pm_location_t, ptr %19, i32 0, i32 0
  %21 = load ptr, ptr %3, align 8, !tbaa !7
  %22 = getelementptr inbounds nuw %struct.pm_parser, ptr %21, i32 0, i32 8
  %23 = load ptr, ptr %22, align 8, !tbaa !40
  store ptr %23, ptr %20, align 8, !tbaa !152
  %24 = getelementptr inbounds nuw %struct.pm_location_t, ptr %19, i32 0, i32 1
  %25 = load ptr, ptr %3, align 8, !tbaa !7
  %26 = getelementptr inbounds nuw %struct.pm_parser, ptr %25, i32 0, i32 8
  %27 = load ptr, ptr %26, align 8, !tbaa !40
  store ptr %27, ptr %24, align 8, !tbaa !153
  %28 = getelementptr inbounds nuw %struct.pm_call_node, ptr %6, i32 0, i32 1
  store ptr null, ptr %28, align 8, !tbaa !731
  %29 = getelementptr inbounds nuw %struct.pm_call_node, ptr %6, i32 0, i32 2
  %30 = getelementptr inbounds nuw %struct.pm_location_t, ptr %29, i32 0, i32 0
  store ptr null, ptr %30, align 8, !tbaa !152
  %31 = getelementptr inbounds nuw %struct.pm_location_t, ptr %29, i32 0, i32 1
  store ptr null, ptr %31, align 8, !tbaa !153
  %32 = getelementptr inbounds nuw %struct.pm_call_node, ptr %6, i32 0, i32 3
  store i32 0, ptr %32, align 8, !tbaa !216
  %33 = getelementptr i8, ptr %6, i64 52
  call void @llvm.memset.p0.i64(ptr align 4 %33, i8 0, i64 4, i1 false)
  %34 = getelementptr inbounds nuw %struct.pm_call_node, ptr %6, i32 0, i32 4
  %35 = getelementptr inbounds nuw %struct.pm_location_t, ptr %34, i32 0, i32 0
  store ptr null, ptr %35, align 8, !tbaa !152
  %36 = getelementptr inbounds nuw %struct.pm_location_t, ptr %34, i32 0, i32 1
  store ptr null, ptr %36, align 8, !tbaa !153
  %37 = getelementptr inbounds nuw %struct.pm_call_node, ptr %6, i32 0, i32 5
  %38 = getelementptr inbounds nuw %struct.pm_location_t, ptr %37, i32 0, i32 0
  store ptr null, ptr %38, align 8, !tbaa !152
  %39 = getelementptr inbounds nuw %struct.pm_location_t, ptr %37, i32 0, i32 1
  store ptr null, ptr %39, align 8, !tbaa !153
  %40 = getelementptr inbounds nuw %struct.pm_call_node, ptr %6, i32 0, i32 6
  store ptr null, ptr %40, align 8, !tbaa !330
  %41 = getelementptr inbounds nuw %struct.pm_call_node, ptr %6, i32 0, i32 7
  %42 = getelementptr inbounds nuw %struct.pm_location_t, ptr %41, i32 0, i32 0
  store ptr null, ptr %42, align 8, !tbaa !152
  %43 = getelementptr inbounds nuw %struct.pm_location_t, ptr %41, i32 0, i32 1
  store ptr null, ptr %43, align 8, !tbaa !153
  %44 = getelementptr inbounds nuw %struct.pm_call_node, ptr %6, i32 0, i32 8
  store ptr null, ptr %44, align 8, !tbaa !331
  call void @llvm.memcpy.p0.p0.i64(ptr align 8 %9, ptr align 8 %6, i64 120, i1 false), !tbaa.struct !848
  %45 = load ptr, ptr %5, align 8, !tbaa !210
  call void @llvm.lifetime.end.p0(i64 8, ptr %5) #15
  ret ptr %45
}

; Function Attrs: nounwind sspstrong uwtable
define internal ptr @pm_call_node_fcall_create(ptr noundef %0, ptr noundef %1, ptr noundef %2) #0 {
  %4 = alloca ptr, align 8
  %5 = alloca ptr, align 8
  %6 = alloca ptr, align 8
  %7 = alloca ptr, align 8
  %8 = alloca %struct.pm_location_t, align 8
  %9 = alloca %struct.pm_location_t, align 8
  store ptr %0, ptr %4, align 8, !tbaa !7
  store ptr %1, ptr %5, align 8, !tbaa !57
  store ptr %2, ptr %6, align 8, !tbaa !57
  call void @llvm.lifetime.start.p0(i64 8, ptr %7) #15
  %10 = load ptr, ptr %4, align 8, !tbaa !7
  %11 = call ptr @pm_call_node_create(ptr noundef %10, i16 noundef zeroext 32)
  store ptr %11, ptr %7, align 8, !tbaa !210
  %12 = load ptr, ptr %5, align 8, !tbaa !57
  %13 = getelementptr inbounds nuw %struct.pm_token_t, ptr %12, i32 0, i32 1
  %14 = load ptr, ptr %13, align 8, !tbaa !43
  %15 = load ptr, ptr %7, align 8, !tbaa !210
  %16 = getelementptr inbounds nuw %struct.pm_call_node, ptr %15, i32 0, i32 0
  %17 = getelementptr inbounds nuw %struct.pm_node, ptr %16, i32 0, i32 3
  %18 = getelementptr inbounds nuw %struct.pm_location_t, ptr %17, i32 0, i32 0
  store ptr %14, ptr %18, align 8, !tbaa !499
  %19 = load ptr, ptr %6, align 8, !tbaa !57
  %20 = call ptr @pm_arguments_end(ptr noundef %19)
  %21 = load ptr, ptr %7, align 8, !tbaa !210
  %22 = getelementptr inbounds nuw %struct.pm_call_node, ptr %21, i32 0, i32 0
  %23 = getelementptr inbounds nuw %struct.pm_node, ptr %22, i32 0, i32 3
  %24 = getelementptr inbounds nuw %struct.pm_location_t, ptr %23, i32 0, i32 1
  store ptr %20, ptr %24, align 8, !tbaa !358
  %25 = load ptr, ptr %7, align 8, !tbaa !210
  %26 = getelementptr inbounds nuw %struct.pm_call_node, ptr %25, i32 0, i32 4
  %27 = load ptr, ptr %5, align 8, !tbaa !57
  %28 = getelementptr inbounds nuw %struct.pm_token_t, ptr %27, i32 0, i32 0
  %29 = load i32, ptr %28, align 8, !tbaa !42
  %30 = icmp eq i32 %29, 3
  br i1 %30, label %31, label %34

31:                                               ; preds = %3
  %32 = getelementptr inbounds nuw %struct.pm_location_t, ptr %8, i32 0, i32 0
  store ptr null, ptr %32, align 8, !tbaa !152
  %33 = getelementptr inbounds nuw %struct.pm_location_t, ptr %8, i32 0, i32 1
  store ptr null, ptr %33, align 8, !tbaa !153
  call void @llvm.memcpy.p0.p0.i64(ptr align 8 %26, ptr align 8 %8, i64 16, i1 false), !tbaa.struct !241
  br label %43

34:                                               ; preds = %3
  %35 = getelementptr inbounds nuw %struct.pm_location_t, ptr %9, i32 0, i32 0
  %36 = load ptr, ptr %5, align 8, !tbaa !57
  %37 = getelementptr inbounds nuw %struct.pm_token_t, ptr %36, i32 0, i32 1
  %38 = load ptr, ptr %37, align 8, !tbaa !43
  store ptr %38, ptr %35, align 8, !tbaa !152
  %39 = getelementptr inbounds nuw %struct.pm_location_t, ptr %9, i32 0, i32 1
  %40 = load ptr, ptr %5, align 8, !tbaa !57
  %41 = getelementptr inbounds nuw %struct.pm_token_t, ptr %40, i32 0, i32 2
  %42 = load ptr, ptr %41, align 8, !tbaa !44
  store ptr %42, ptr %39, align 8, !tbaa !153
  call void @llvm.memcpy.p0.p0.i64(ptr align 8 %26, ptr align 8 %9, i64 16, i1 false), !tbaa.struct !241
  br label %43

43:                                               ; preds = %34, %31
  %44 = load ptr, ptr %7, align 8, !tbaa !210
  %45 = getelementptr inbounds nuw %struct.pm_call_node, ptr %44, i32 0, i32 5
  %46 = load ptr, ptr %6, align 8, !tbaa !57
  %47 = getelementptr inbounds nuw %struct.pm_arguments_t, ptr %46, i32 0, i32 0
  call void @llvm.memcpy.p0.p0.i64(ptr align 8 %45, ptr align 8 %47, i64 16, i1 false), !tbaa.struct !241
  %48 = load ptr, ptr %6, align 8, !tbaa !57
  %49 = getelementptr inbounds nuw %struct.pm_arguments_t, ptr %48, i32 0, i32 1
  %50 = load ptr, ptr %49, align 8, !tbaa !355
  %51 = load ptr, ptr %7, align 8, !tbaa !210
  %52 = getelementptr inbounds nuw %struct.pm_call_node, ptr %51, i32 0, i32 6
  store ptr %50, ptr %52, align 8, !tbaa !330
  %53 = load ptr, ptr %7, align 8, !tbaa !210
  %54 = getelementptr inbounds nuw %struct.pm_call_node, ptr %53, i32 0, i32 7
  %55 = load ptr, ptr %6, align 8, !tbaa !57
  %56 = getelementptr inbounds nuw %struct.pm_arguments_t, ptr %55, i32 0, i32 2
  call void @llvm.memcpy.p0.p0.i64(ptr align 8 %54, ptr align 8 %56, i64 16, i1 false), !tbaa.struct !241
  %57 = load ptr, ptr %6, align 8, !tbaa !57
  %58 = getelementptr inbounds nuw %struct.pm_arguments_t, ptr %57, i32 0, i32 3
  %59 = load ptr, ptr %58, align 8, !tbaa !357
  %60 = load ptr, ptr %7, align 8, !tbaa !210
  %61 = getelementptr inbounds nuw %struct.pm_call_node, ptr %60, i32 0, i32 8
  store ptr %59, ptr %61, align 8, !tbaa !331
  %62 = load ptr, ptr %4, align 8, !tbaa !7
  %63 = load ptr, ptr %5, align 8, !tbaa !57
  %64 = call i32 @pm_parser_constant_id_token(ptr noundef %62, ptr noundef %63)
  %65 = load ptr, ptr %7, align 8, !tbaa !210
  %66 = getelementptr inbounds nuw %struct.pm_call_node, ptr %65, i32 0, i32 3
  store i32 %64, ptr %66, align 8, !tbaa !216
  %67 = load ptr, ptr %7, align 8, !tbaa !210
  call void @llvm.lifetime.end.p0(i64 8, ptr %7) #15
  ret ptr %67
}