; Function Attrs: nounwind sspstrong uwtable
define internal fastcc noalias nonnull ptr @pm_call_node_fcall_create(ptr noundef %0, ptr noundef nonnull readonly captures(none) %1, ptr noundef nonnull readonly captures(none) %2) unnamed_addr #1 {
  %4 = tail call noalias dereferenceable_or_null(120) ptr @calloc(i64 noundef 1, i64 noundef 120) #34
  %5 = icmp eq ptr %4, null
  br i1 %5, label %6, label %pm_call_node_create.exit

6:                                                ; preds = %3
  %7 = load ptr, ptr @stderr, align 8, !tbaa !105
  %8 = tail call i32 (ptr, i32, ptr, ...) @__fprintf_chk(ptr noundef %7, i32 noundef 1, ptr noundef nonnull @.str.94, i32 noundef 120) #31
  tail call void @abort() #35
  unreachable

pm_call_node_create.exit:                         ; preds = %3
  %9 = load i32, ptr %0, align 8, !tbaa !107
  %10 = add i32 %9, 1
  store i32 %10, ptr %0, align 8, !tbaa !107
  store i16 19, ptr %4, align 8, !tbaa !108
  %.sroa.2.0..sroa_idx.i = getelementptr inbounds nuw i8, ptr %4, i64 2
  store i16 32, ptr %.sroa.2.0..sroa_idx.i, align 2, !tbaa !108
  %.sroa.3.0..sroa_idx.i = getelementptr inbounds nuw i8, ptr %4, i64 4
  store i32 %10, ptr %.sroa.3.0..sroa_idx.i, align 4, !tbaa !7
  %.sroa.4.0..sroa_idx.i = getelementptr inbounds nuw i8, ptr %4, i64 8
  %11 = getelementptr inbounds nuw i8, ptr %1, i64 8
  %12 = load ptr, ptr %11, align 8, !tbaa !125
  store ptr %12, ptr %.sroa.4.0..sroa_idx.i, align 8, !tbaa !121
  %13 = getelementptr inbounds nuw i8, ptr %2, i64 40
  %14 = load ptr, ptr %13, align 8, !tbaa !306
  %.not.i = icmp eq ptr %14, null
  br i1 %.not.i, label %24, label %15

15:                                               ; preds = %pm_call_node_create.exit
  %16 = getelementptr inbounds nuw i8, ptr %14, i64 16
  %17 = load ptr, ptr %16, align 8, !tbaa !132
  %18 = getelementptr inbounds nuw i8, ptr %2, i64 24
  %19 = load ptr, ptr %18, align 8, !tbaa !307
  %.not20.i = icmp eq ptr %19, null
  br i1 %.not20.i, label %pm_arguments_end.exit, label %20

20:                                               ; preds = %15
  %21 = getelementptr inbounds nuw i8, ptr %2, i64 32
  %22 = load ptr, ptr %21, align 8, !tbaa !308
  %23 = icmp ugt ptr %22, %17
  %spec.select.i = select i1 %23, ptr %22, ptr %17
  br label %pm_arguments_end.exit

24:                                               ; preds = %pm_call_node_create.exit
  %25 = getelementptr inbounds nuw i8, ptr %2, i64 24
  %26 = load ptr, ptr %25, align 8, !tbaa !307
  %.not18.i = icmp eq ptr %26, null
  br i1 %.not18.i, label %30, label %27

27:                                               ; preds = %24
  %28 = getelementptr inbounds nuw i8, ptr %2, i64 32
  %29 = load ptr, ptr %28, align 8, !tbaa !308
  br label %pm_arguments_end.exit

30:                                               ; preds = %24
  %31 = getelementptr inbounds nuw i8, ptr %2, i64 16
  %32 = load ptr, ptr %31, align 8, !tbaa !304
  %.not19.i = icmp eq ptr %32, null
  br i1 %.not19.i, label %36, label %33

33:                                               ; preds = %30
  %34 = getelementptr inbounds nuw i8, ptr %32, i64 16
  %35 = load ptr, ptr %34, align 8, !tbaa !112
  br label %pm_arguments_end.exit

36:                                               ; preds = %30
  %37 = getelementptr inbounds nuw i8, ptr %2, i64 32
  %38 = load ptr, ptr %37, align 8, !tbaa !308
  br label %pm_arguments_end.exit

pm_arguments_end.exit:                            ; preds = %15, %20, %27, %33, %36
  %.013.i = phi ptr [ %29, %27 ], [ %35, %33 ], [ %38, %36 ], [ %17, %15 ], [ %spec.select.i, %20 ]
  %.sroa.5.0..sroa_idx.i = getelementptr inbounds nuw i8, ptr %4, i64 16
  store ptr %.013.i, ptr %.sroa.5.0..sroa_idx.i, align 8, !tbaa !122
  %39 = load i32, ptr %1, align 8, !tbaa !124
  %40 = icmp eq i32 %39, 3
  %.phi.trans.insert = getelementptr i8, ptr %1, i64 16
  %.val23.pre = load ptr, ptr %.phi.trans.insert, align 8, !tbaa !126
  %. = select i1 %40, ptr null, ptr %12
  %..val23.pre = select i1 %40, ptr null, ptr %.val23.pre
  %41 = getelementptr inbounds nuw i8, ptr %4, i64 56
  store ptr %., ptr %41, align 8, !tbaa !14
  %42 = getelementptr inbounds nuw i8, ptr %4, i64 64
  store ptr %..val23.pre, ptr %42, align 8, !tbaa !14
  %43 = getelementptr inbounds nuw i8, ptr %4, i64 72
  tail call void @llvm.memcpy.p0.p0.i64(ptr noundef nonnull align 8 dereferenceable(16) %43, ptr noundef nonnull align 8 dereferenceable(16) %2, i64 16, i1 false), !tbaa.struct !303
  %44 = getelementptr inbounds nuw i8, ptr %2, i64 16
  %45 = load ptr, ptr %44, align 8, !tbaa !304
  %46 = getelementptr inbounds nuw i8, ptr %4, i64 88
  store ptr %45, ptr %46, align 8, !tbaa !115
  %47 = getelementptr inbounds nuw i8, ptr %4, i64 96
  %48 = getelementptr inbounds nuw i8, ptr %2, i64 24
  tail call void @llvm.memcpy.p0.p0.i64(ptr noundef nonnull align 8 dereferenceable(16) %47, ptr noundef nonnull align 8 dereferenceable(16) %48, i64 16, i1 false), !tbaa.struct !303
  %49 = getelementptr inbounds nuw i8, ptr %4, i64 112
  store ptr %14, ptr %49, align 8, !tbaa !282
  %50 = getelementptr inbounds nuw i8, ptr %0, i64 576
  %51 = ptrtoint ptr %.val23.pre to i64
  %52 = ptrtoint ptr %12 to i64
  %53 = sub i64 %51, %52
  %54 = tail call i32 @pm_constant_pool_insert_shared(ptr noundef nonnull %50, ptr noundef %12, i64 noundef %53) #31
  %55 = getelementptr inbounds nuw i8, ptr %4, i64 48
  store i32 %54, ptr %55, align 8, !tbaa !118
  ret ptr %4
}